target datalayout = "e-m:e-p270:32:32-p271:32:32-p272:64:64-i64:64-i128:128-f80:128-n8:16:32:64-S128"
target triple = "x86_64-pc-linux-gnu"

%"class.std::__1::locale::facet" = type { %"class.std::__1::__shared_count" }
%"class.std::__1::__shared_count" = type { ptr, i64 }
%"class.std::__1::codecvt" = type { %"class.std::__1::locale::facet" }
%"class.std::__1::__codecvt_utf16.74" = type <{ %"class.std::__1::codecvt", i64, i32, [4 x i8] }>

; Function Attrs: mustprogress nounwind uwtable
define internal noundef i32 @_ZNSt3__1L15utf16le_to_ucs4EPKhS1_RS1_PjS3_RS3_mNS_12codecvt_modeE(ptr noundef %0, ptr noundef %1, ptr noundef nonnull align 8 dereferenceable(8) %2, ptr noundef %3, ptr noundef %4, ptr noundef nonnull align 8 dereferenceable(8) %5, i64 noundef %6, i32 noundef %7) #0 {
  %9 = alloca i32, align 4
  %10 = alloca ptr, align 8
  %11 = alloca ptr, align 8
  %12 = alloca ptr, align 8
  %13 = alloca ptr, align 8
  %14 = alloca ptr, align 8
  %15 = alloca ptr, align 8
  %16 = alloca i64, align 8
  %17 = alloca i32, align 4
  %18 = alloca i16, align 2
  %19 = alloca i32, align 4
  %20 = alloca i16, align 2
  %21 = alloca i32, align 4
  store ptr %0, ptr %10, align 8, !tbaa !9
  store ptr %1, ptr %11, align 8, !tbaa !9
  store ptr %2, ptr %12, align 8, !tbaa !95
  store ptr %3, ptr %13, align 8, !tbaa !33
  store ptr %4, ptr %14, align 8, !tbaa !33
  store ptr %5, ptr %15, align 8, !tbaa !97
  store i64 %6, ptr %16, align 8, !tbaa !16
  store i32 %7, ptr %17, align 4, !tbaa !502
  %22 = load ptr, ptr %10, align 8, !tbaa !9
  %23 = load ptr, ptr %12, align 8, !tbaa !95
  store ptr %22, ptr %23, align 8, !tbaa !9
  %24 = load ptr, ptr %13, align 8, !tbaa !33
  %25 = load ptr, ptr %15, align 8, !tbaa !97
  store ptr %24, ptr %25, align 8, !tbaa !33
  %26 = load i32, ptr %17, align 4, !tbaa !502
  %27 = and i32 %26, 4
  %28 = icmp ne i32 %27, 0
  br i1 %28, label %29, label %56

29:                                               ; preds = %8
  %30 = load ptr, ptr %11, align 8, !tbaa !9
  %31 = load ptr, ptr %12, align 8, !tbaa !95
  %32 = load ptr, ptr %31, align 8, !tbaa !9
  %33 = ptrtoint ptr %30 to i64
  %34 = ptrtoint ptr %32 to i64
  %35 = sub i64 %33, %34
  %36 = icmp sge i64 %35, 2
  br i1 %36, label %37, label %55

37:                                               ; preds = %29
  %38 = load ptr, ptr %12, align 8, !tbaa !95
  %39 = load ptr, ptr %38, align 8, !tbaa !9
  %40 = getelementptr inbounds i8, ptr %39, i64 0
  %41 = load i8, ptr %40, align 1, !tbaa !11
  %42 = zext i8 %41 to i32
  %43 = icmp eq i32 %42, 255
  br i1 %43, label %44, label %55

44:                                               ; preds = %37
  %45 = load ptr, ptr %12, align 8, !tbaa !95
  %46 = load ptr, ptr %45, align 8, !tbaa !9
  %47 = getelementptr inbounds i8, ptr %46, i64 1
  %48 = load i8, ptr %47, align 1, !tbaa !11
  %49 = zext i8 %48 to i32
  %50 = icmp eq i32 %49, 254
  br i1 %50, label %51, label %55

51:                                               ; preds = %44
  %52 = load ptr, ptr %12, align 8, !tbaa !95
  %53 = load ptr, ptr %52, align 8, !tbaa !9
  %54 = getelementptr inbounds i8, ptr %53, i64 2
  store ptr %54, ptr %52, align 8, !tbaa !9
  br label %55

55:                                               ; preds = %51, %44, %37, %29
  br label %56

56:                                               ; preds = %55, %8
  br label %57

57:                                               ; preds = %172, %56
  %58 = load ptr, ptr %12, align 8, !tbaa !95
  %59 = load ptr, ptr %58, align 8, !tbaa !9
  %60 = load ptr, ptr %11, align 8, !tbaa !9
  %61 = getelementptr inbounds i8, ptr %60, i64 -1
  %62 = icmp ult ptr %59, %61
  br i1 %62, label %63, label %68

63:                                               ; preds = %57
  %64 = load ptr, ptr %15, align 8, !tbaa !97
  %65 = load ptr, ptr %64, align 8, !tbaa !33
  %66 = load ptr, ptr %14, align 8, !tbaa !33
  %67 = icmp ult ptr %65, %66
  br label %68

68:                                               ; preds = %63, %57
  %69 = phi i1 [ false, %57 ], [ %67, %63 ]
  br i1 %69, label %70, label %176

70:                                               ; preds = %68
  call void @llvm.lifetime.start.p0(i64 2, ptr %18) #13
  %71 = load ptr, ptr %12, align 8, !tbaa !95
  %72 = load ptr, ptr %71, align 8, !tbaa !9
  %73 = getelementptr inbounds i8, ptr %72, i64 1
  %74 = load i8, ptr %73, align 1, !tbaa !11
  %75 = zext i8 %74 to i32
  %76 = shl i32 %75, 8
  %77 = load ptr, ptr %12, align 8, !tbaa !95
  %78 = load ptr, ptr %77, align 8, !tbaa !9
  %79 = getelementptr inbounds i8, ptr %78, i64 0
  %80 = load i8, ptr %79, align 1, !tbaa !11
  %81 = zext i8 %80 to i32
  %82 = or i32 %76, %81
  %83 = trunc i32 %82 to i16
  store i16 %83, ptr %18, align 2, !tbaa !73
  %84 = load i16, ptr %18, align 2, !tbaa !73
  %85 = zext i16 %84 to i32
  %86 = and i32 %85, 64512
  %87 = icmp eq i32 %86, 56320
  br i1 %87, label %88, label %89

88:                                               ; preds = %70
  store i32 2, ptr %9, align 4
  store i32 1, ptr %19, align 4
  br label %169

89:                                               ; preds = %70
  %90 = load i16, ptr %18, align 2, !tbaa !73
  %91 = zext i16 %90 to i32
  %92 = and i32 %91, 64512
  %93 = icmp ne i32 %92, 55296
  br i1 %93, label %94, label %108

94:                                               ; preds = %89
  %95 = load i16, ptr %18, align 2, !tbaa !73
  %96 = zext i16 %95 to i64
  %97 = load i64, ptr %16, align 8, !tbaa !16
  %98 = icmp ugt i64 %96, %97
  br i1 %98, label %99, label %100

99:                                               ; preds = %94
  store i32 2, ptr %9, align 4
  store i32 1, ptr %19, align 4
  br label %169

100:                                              ; preds = %94
  %101 = load i16, ptr %18, align 2, !tbaa !73
  %102 = zext i16 %101 to i32
  %103 = load ptr, ptr %15, align 8, !tbaa !97
  %104 = load ptr, ptr %103, align 8, !tbaa !33
  store i32 %102, ptr %104, align 4, !tbaa !41
  %105 = load ptr, ptr %12, align 8, !tbaa !95
  %106 = load ptr, ptr %105, align 8, !tbaa !9
  %107 = getelementptr inbounds i8, ptr %106, i64 2
  store ptr %107, ptr %105, align 8, !tbaa !9
  br label %168

108:                                              ; preds = %89
  %109 = load ptr, ptr %11, align 8, !tbaa !9
  %110 = load ptr, ptr %12, align 8, !tbaa !95
  %111 = load ptr, ptr %110, align 8, !tbaa !9
  %112 = ptrtoint ptr %109 to i64
  %113 = ptrtoint ptr %111 to i64
  %114 = sub i64 %112, %113
  %115 = icmp slt i64 %114, 4
  br i1 %115, label %116, label %117

116:                                              ; preds = %108
  store i32 1, ptr %9, align 4
  store i32 1, ptr %19, align 4
  br label %169

117:                                              ; preds = %108
  call void @llvm.lifetime.start.p0(i64 2, ptr %20) #13
  %118 = load ptr, ptr %12, align 8, !tbaa !95
  %119 = load ptr, ptr %118, align 8, !tbaa !9
  %120 = getelementptr inbounds i8, ptr %119, i64 3
  %121 = load i8, ptr %120, align 1, !tbaa !11
  %122 = zext i8 %121 to i32
  %123 = shl i32 %122, 8
  %124 = load ptr, ptr %12, align 8, !tbaa !95
  %125 = load ptr, ptr %124, align 8, !tbaa !9
  %126 = getelementptr inbounds i8, ptr %125, i64 2
  %127 = load i8, ptr %126, align 1, !tbaa !11
  %128 = zext i8 %127 to i32
  %129 = or i32 %123, %128
  %130 = trunc i32 %129 to i16
  store i16 %130, ptr %20, align 2, !tbaa !73
  %131 = load i16, ptr %20, align 2, !tbaa !73
  %132 = zext i16 %131 to i32
  %133 = and i32 %132, 64512
  %134 = icmp ne i32 %133, 56320
  br i1 %134, label %135, label %136

135:                                              ; preds = %117
  store i32 2, ptr %9, align 4
  store i32 1, ptr %19, align 4
  br label %165

136:                                              ; preds = %117
  call void @llvm.lifetime.start.p0(i64 4, ptr %21) #13
  %137 = load i16, ptr %18, align 2, !tbaa !73
  %138 = zext i16 %137 to i32
  %139 = and i32 %138, 960
  %140 = ashr i32 %139, 6
  %141 = add nsw i32 %140, 1
  %142 = shl i32 %141, 16
  %143 = load i16, ptr %18, align 2, !tbaa !73
  %144 = zext i16 %143 to i32
  %145 = and i32 %144, 63
  %146 = shl i32 %145, 10
  %147 = or i32 %142, %146
  %148 = load i16, ptr %20, align 2, !tbaa !73
  %149 = zext i16 %148 to i32
  %150 = and i32 %149, 1023
  %151 = or i32 %147, %150
  store i32 %151, ptr %21, align 4, !tbaa !41
  %152 = load i32, ptr %21, align 4, !tbaa !41
  %153 = zext i32 %152 to i64
  %154 = load i64, ptr %16, align 8, !tbaa !16
  %155 = icmp ugt i64 %153, %154
  br i1 %155, label %156, label %157

156:                                              ; preds = %136
  store i32 2, ptr %9, align 4
  store i32 1, ptr %19, align 4
  br label %164

157:                                              ; preds = %136
  %158 = load i32, ptr %21, align 4, !tbaa !41
  %159 = load ptr, ptr %15, align 8, !tbaa !97
  %160 = load ptr, ptr %159, align 8, !tbaa !33
  store i32 %158, ptr %160, align 4, !tbaa !41
  %161 = load ptr, ptr %12, align 8, !tbaa !95
  %162 = load ptr, ptr %161, align 8, !tbaa !9
  %163 = getelementptr inbounds i8, ptr %162, i64 4
  store ptr %163, ptr %161, align 8, !tbaa !9
  store i32 0, ptr %19, align 4
  br label %164

164:                                              ; preds = %157, %156
  call void @llvm.lifetime.end.p0(i64 4, ptr %21) #13
  br label %165

165:                                              ; preds = %164, %135
  call void @llvm.lifetime.end.p0(i64 2, ptr %20) #13
  %166 = load i32, ptr %19, align 4
  switch i32 %166, label %169 [
    i32 0, label %167
  ]

167:                                              ; preds = %165
  br label %168

168:                                              ; preds = %167, %100
  store i32 0, ptr %19, align 4
  br label %169

169:                                              ; preds = %168, %165, %116, %99, %88
  call void @llvm.lifetime.end.p0(i64 2, ptr %18) #13
  %170 = load i32, ptr %19, align 4
  switch i32 %170, label %184 [
    i32 0, label %171
    i32 1, label %182
  ]

171:                                              ; preds = %169
  br label %172

172:                                              ; preds = %171
  %173 = load ptr, ptr %15, align 8, !tbaa !97
  %174 = load ptr, ptr %173, align 8, !tbaa !33
  %175 = getelementptr inbounds nuw i32, ptr %174, i32 1
  store ptr %175, ptr %173, align 8, !tbaa !33
  br label %57, !llvm.loop !550

176:                                              ; preds = %68
  %177 = load ptr, ptr %12, align 8, !tbaa !95
  %178 = load ptr, ptr %177, align 8, !tbaa !9
  %179 = load ptr, ptr %11, align 8, !tbaa !9
  %180 = icmp ult ptr %178, %179
  %181 = select i1 %180, i32 1, i32 0
  store i32 %181, ptr %9, align 4
  br label %182

182:                                              ; preds = %176, %169
  %183 = load i32, ptr %9, align 4
  ret i32 %183

184:                                              ; preds = %169
  unreachable
}

; Function Attrs: mustprogress uwtable
define dso_local noundef i32 @_ZNKSt3__115__codecvt_utf16IDiLb1EE5do_inER11__mbstate_tPKcS5_RS5_PDiS7_RS7_(ptr noundef nonnull align 8 dereferenceable(28) %0, ptr noundef nonnull align 4 dereferenceable(8) %1, ptr noundef %2, ptr noundef %3, ptr noundef nonnull align 8 dereferenceable(8) %4, ptr noundef %5, ptr noundef %6, ptr noundef nonnull align 8 dereferenceable(8) %7) unnamed_addr #2 align 2 {
  %9 = alloca ptr, align 8
  %10 = alloca ptr, align 8
  %11 = alloca ptr, align 8
  %12 = alloca ptr, align 8
  %13 = alloca ptr, align 8
  %14 = alloca ptr, align 8
  %15 = alloca ptr, align 8
  %16 = alloca ptr, align 8
  %17 = alloca ptr, align 8
  %18 = alloca ptr, align 8
  %19 = alloca ptr, align 8
  %20 = alloca ptr, align 8
  %21 = alloca ptr, align 8
  %22 = alloca ptr, align 8
  %23 = alloca i32, align 4
  store ptr %0, ptr %9, align 8, !tbaa !573
  store ptr %1, ptr %10, align 8, !tbaa !55
  store ptr %2, ptr %11, align 8, !tbaa !9
  store ptr %3, ptr %12, align 8, !tbaa !9
  store ptr %4, ptr %13, align 8, !tbaa !95
  store ptr %5, ptr %14, align 8, !tbaa !339
  store ptr %6, ptr %15, align 8, !tbaa !339
  store ptr %7, ptr %16, align 8, !tbaa !511
  %24 = load ptr, ptr %9, align 8
  call void @llvm.lifetime.start.p0(i64 8, ptr %17) #13
  %25 = load ptr, ptr %11, align 8, !tbaa !9
  store ptr %25, ptr %17, align 8, !tbaa !9
  call void @llvm.lifetime.start.p0(i64 8, ptr %18) #13
  %26 = load ptr, ptr %12, align 8, !tbaa !9
  store ptr %26, ptr %18, align 8, !tbaa !9
  call void @llvm.lifetime.start.p0(i64 8, ptr %19) #13
  %27 = load ptr, ptr %17, align 8, !tbaa !9
  store ptr %27, ptr %19, align 8, !tbaa !9
  call void @llvm.lifetime.start.p0(i64 8, ptr %20) #13
  %28 = load ptr, ptr %14, align 8, !tbaa !339
  store ptr %28, ptr %20, align 8, !tbaa !33
  call void @llvm.lifetime.start.p0(i64 8, ptr %21) #13
  %29 = load ptr, ptr %15, align 8, !tbaa !339
  store ptr %29, ptr %21, align 8, !tbaa !33
  call void @llvm.lifetime.start.p0(i64 8, ptr %22) #13
  %30 = load ptr, ptr %20, align 8, !tbaa !33
  store ptr %30, ptr %22, align 8, !tbaa !33
  call void @llvm.lifetime.start.p0(i64 4, ptr %23) #13
  %31 = load ptr, ptr %17, align 8, !tbaa !9
  %32 = load ptr, ptr %18, align 8, !tbaa !9
  %33 = load ptr, ptr %20, align 8, !tbaa !33
  %34 = load ptr, ptr %21, align 8, !tbaa !33
  %35 = getelementptr inbounds nuw %"class.std::__1::__codecvt_utf16.74", ptr %24, i32 0, i32 1
  %36 = load i64, ptr %35, align 8, !tbaa !575
  %37 = getelementptr inbounds nuw %"class.std::__1::__codecvt_utf16.74", ptr %24, i32 0, i32 2
  %38 = load i32, ptr %37, align 8, !tbaa !577
  %39 = call noundef i32 @_ZNSt3__1L15utf16le_to_ucs4EPKhS1_RS1_PjS3_RS3_mNS_12codecvt_modeE(ptr noundef %31, ptr noundef %32, ptr noundef nonnull align 8 dereferenceable(8) %19, ptr noundef %33, ptr noundef %34, ptr noundef nonnull align 8 dereferenceable(8) %22, i64 noundef %36, i32 noundef %38)
  store i32 %39, ptr %23, align 4, !tbaa !337
  %40 = load ptr, ptr %11, align 8, !tbaa !9
  %41 = load ptr, ptr %19, align 8, !tbaa !9
  %42 = load ptr, ptr %17, align 8, !tbaa !9
  %43 = ptrtoint ptr %41 to i64
  %44 = ptrtoint ptr %42 to i64
  %45 = sub i64 %43, %44
  %46 = getelementptr inbounds i8, ptr %40, i64 %45
  %47 = load ptr, ptr %13, align 8, !tbaa !95
  store ptr %46, ptr %47, align 8, !tbaa !9
  %48 = load ptr, ptr %14, align 8, !tbaa !339
  %49 = load ptr, ptr %22, align 8, !tbaa !33
  %50 = load ptr, ptr %20, align 8, !tbaa !33
  %51 = ptrtoint ptr %49 to i64
  %52 = ptrtoint ptr %50 to i64
  %53 = sub i64 %51, %52
  %54 = sdiv exact i64 %53, 4
  %55 = getelementptr inbounds i32, ptr %48, i64 %54
  %56 = load ptr, ptr %16, align 8, !tbaa !511
  store ptr %55, ptr %56, align 8, !tbaa !339
  %57 = load i32, ptr %23, align 4, !tbaa !337
  call void @llvm.lifetime.end.p0(i64 4, ptr %23) #13
  call void @llvm.lifetime.end.p0(i64 8, ptr %22) #13
  call void @llvm.lifetime.end.p0(i64 8, ptr %21) #13
  call void @llvm.lifetime.end.p0(i64 8, ptr %20) #13
  call void @llvm.lifetime.end.p0(i64 8, ptr %19) #13
  call void @llvm.lifetime.end.p0(i64 8, ptr %18) #13
  call void @llvm.lifetime.end.p0(i64 8, ptr %17) #13
  ret i32 %57
}