; Function Attrs: mustprogress nofree norecurse nosync nounwind memory(argmem: readwrite) uwtable
define dso_local noundef range(i32 0, 3) i32 @_ZNKSt3__115__codecvt_utf16IDiLb1EE5do_inER11__mbstate_tPKcS5_RS5_PDiS7_RS7_(ptr noundef nonnull readonly align 8 captures(none) dereferenceable(28) %0, ptr nonnull readnone align 4 captures(none) %1, ptr noundef %2, ptr noundef %3, ptr noundef nonnull writeonly align 8 captures(none) dereferenceable(8) %4, ptr noundef %5, ptr noundef readnone captures(address) %6, ptr noundef nonnull writeonly align 8 captures(none) dereferenceable(8) %7) unnamed_addr #24 align 2 {
  %9 = getelementptr inbounds nuw i8, ptr %0, i64 16
  %10 = load i64, ptr %9, align 8, !tbaa !472
  %11 = getelementptr inbounds nuw i8, ptr %0, i64 24
  %12 = load i32, ptr %11, align 8, !tbaa !474
  %13 = and i32 %12, 4
  %.not.i = icmp ne i32 %13, 0
  %14 = ptrtoint ptr %3 to i64
  %15 = ptrtoint ptr %2 to i64
  %16 = sub i64 %14, %15
  %17 = icmp sgt i64 %16, 1
  %or.cond.i = and i1 %17, %.not.i
  br i1 %or.cond.i, label %18, label %25

18:                                               ; preds = %8
  %19 = load i8, ptr %2, align 1, !tbaa !4
  %20 = icmp eq i8 %19, -1
  br i1 %20, label %21, label %25

21:                                               ; preds = %18
  %22 = getelementptr inbounds nuw i8, ptr %2, i64 1
  %23 = load i8, ptr %22, align 1, !tbaa !4
  %24 = icmp eq i8 %23, -2
  %spec.select.idx = select i1 %24, i64 2, i64 0
  %spec.select = getelementptr inbounds nuw i8, ptr %2, i64 %spec.select.idx
  br label %25

25:                                               ; preds = %21, %18, %8
  %.018 = phi ptr [ %2, %18 ], [ %2, %8 ], [ %spec.select, %21 ]
  %26 = getelementptr inbounds i8, ptr %3, i64 -1
  %27 = icmp ult ptr %.018, %26
  br i1 %27, label %.lr.ph.i, label %.critedge.i

.lr.ph.i:                                         ; preds = %25, %63
  %.220 = phi ptr [ %64, %63 ], [ %.018, %25 ]
  %.1 = phi ptr [ %65, %63 ], [ %5, %25 ]
  %28 = icmp ult ptr %.1, %6
  br i1 %28, label %29, label %.critedge.i

29:                                               ; preds = %.lr.ph.i
  %30 = getelementptr inbounds nuw i8, ptr %.220, i64 1
  %31 = load i8, ptr %30, align 1, !tbaa !4
  %32 = zext i8 %31 to i16
  %33 = shl nuw i16 %32, 8
  %34 = load i8, ptr %.220, align 1, !tbaa !4
  %35 = zext i8 %34 to i16
  %36 = or disjoint i16 %33, %35
  %37 = zext i16 %36 to i32
  %trunc.i = and i16 %33, -1024
  switch i16 %trunc.i, label %38 [
    i16 -9216, label %_ZNSt3__1L15utf16le_to_ucs4EPKhS1_RS1_PjS3_RS3_mNS_12codecvt_modeE.exit
    i16 -10240, label %41
  ]

38:                                               ; preds = %29
  %39 = zext i16 %36 to i64
  %40 = icmp ult i64 %10, %39
  br i1 %40, label %_ZNSt3__1L15utf16le_to_ucs4EPKhS1_RS1_PjS3_RS3_mNS_12codecvt_modeE.exit, label %63

41:                                               ; preds = %29
  %42 = ptrtoint ptr %.220 to i64
  %43 = sub i64 %14, %42
  %44 = icmp slt i64 %43, 4
  br i1 %44, label %_ZNSt3__1L15utf16le_to_ucs4EPKhS1_RS1_PjS3_RS3_mNS_12codecvt_modeE.exit, label %45

45:                                               ; preds = %41
  %46 = getelementptr inbounds nuw i8, ptr %.220, i64 3
  %47 = load i8, ptr %46, align 1, !tbaa !4
  %48 = zext i8 %47 to i32
  %49 = and i32 %48, 252
  %.not48.i = icmp eq i32 %49, 220
  br i1 %.not48.i, label %50, label %_ZNSt3__1L15utf16le_to_ucs4EPKhS1_RS1_PjS3_RS3_mNS_12codecvt_modeE.exit

50:                                               ; preds = %45
  %51 = shl nuw nsw i32 %48, 8
  %52 = getelementptr inbounds nuw i8, ptr %.220, i64 2
  %53 = load i8, ptr %52, align 1, !tbaa !4
  %54 = zext i8 %53 to i32
  %55 = shl nuw nsw i32 %37, 10
  %56 = and i32 %55, 983040
  %57 = add nuw nsw i32 %56, 65536
  %58 = and i32 %55, 64512
  %59 = or disjoint i32 %57, %58
  %.masked.i = and i32 %51, 768
  %60 = or disjoint i32 %.masked.i, %54
  %61 = or disjoint i32 %60, %59
  %62 = zext nneg i32 %61 to i64
  %.not60.i = icmp ult i64 %10, %62
  br i1 %.not60.i, label %_ZNSt3__1L15utf16le_to_ucs4EPKhS1_RS1_PjS3_RS3_mNS_12codecvt_modeE.exit, label %63

63:                                               ; preds = %50, %38
  %.sink68.i = phi i32 [ %37, %38 ], [ %61, %50 ]
  %.sink.i = phi i64 [ 2, %38 ], [ 4, %50 ]
  store i32 %.sink68.i, ptr %.1, align 4, !tbaa !27
  %64 = getelementptr inbounds nuw i8, ptr %.220, i64 %.sink.i
  %65 = getelementptr inbounds nuw i8, ptr %.1, i64 4
  %66 = icmp ult ptr %64, %26
  br i1 %66, label %.lr.ph.i, label %.critedge.i, !llvm.loop !455

.critedge.i:                                      ; preds = %63, %.lr.ph.i, %25
  %.119 = phi ptr [ %.018, %25 ], [ %.220, %.lr.ph.i ], [ %64, %63 ]
  %.0 = phi ptr [ %5, %25 ], [ %.1, %.lr.ph.i ], [ %65, %63 ]
  %67 = icmp ult ptr %.119, %3
  %68 = zext i1 %67 to i32
  br label %_ZNSt3__1L15utf16le_to_ucs4EPKhS1_RS1_PjS3_RS3_mNS_12codecvt_modeE.exit

_ZNSt3__1L15utf16le_to_ucs4EPKhS1_RS1_PjS3_RS3_mNS_12codecvt_modeE.exit: ; preds = %29, %38, %41, %45, %50, %.critedge.i
  %.3 = phi ptr [ %.119, %.critedge.i ], [ %.220, %50 ], [ %.220, %45 ], [ %.220, %41 ], [ %.220, %38 ], [ %.220, %29 ]
  %.2 = phi ptr [ %.0, %.critedge.i ], [ %.1, %50 ], [ %.1, %45 ], [ %.1, %41 ], [ %.1, %38 ], [ %.1, %29 ]
  %.5.i = phi i32 [ %68, %.critedge.i ], [ 2, %29 ], [ 2, %38 ], [ 1, %41 ], [ 2, %45 ], [ 2, %50 ]
  %69 = ptrtoint ptr %.3 to i64
  %70 = sub i64 %69, %15
  %71 = getelementptr inbounds i8, ptr %2, i64 %70
  store ptr %71, ptr %4, align 8, !tbaa !72
  %72 = ptrtoint ptr %.2 to i64
  %73 = ptrtoint ptr %5 to i64
  %74 = sub i64 %72, %73
  %75 = getelementptr inbounds i8, ptr %5, i64 %74
  store ptr %75, ptr %7, align 8, !tbaa !330
  ret i32 %.5.i
}